target datalayout = "e-m:e-p270:32:32-p271:32:32-p272:64:64-i64:64-i128:128-f80:128-n8:16:32:64-S128"
target triple = "x86_64-pc-linux-gnu"

%struct.MinMaxLen = type { i32, i32 }
%struct.OptAnc = type { i32, i32 }
%struct.OptStr = type { %struct.MinMaxLen, %struct.OptAnc, i32, i32, [24 x i8] }
%struct.OptEnv = type { %struct.MinMaxLen, ptr, i32, ptr }
%struct.OnigEncodingTypeST = type { ptr, ptr, i32, i32, ptr, ptr, ptr, ptr, ptr, ptr, ptr, ptr, ptr, ptr, ptr, ptr, ptr, ptr, ptr, i32, i32, i32 }

; Function Attrs: nounwind uwtable
define internal void @clear_opt_anc_info(ptr noundef %0) #0 {
  %2 = alloca ptr, align 8
  store ptr %0, ptr %2, align 8, !tbaa !15
  %3 = load ptr, ptr %2, align 8, !tbaa !15
  %4 = getelementptr inbounds nuw %struct.OptAnc, ptr %3, i32 0, i32 0
  store i32 0, ptr %4, align 4, !tbaa !274
  %5 = load ptr, ptr %2, align 8, !tbaa !15
  %6 = getelementptr inbounds nuw %struct.OptAnc, ptr %5, i32 0, i32 1
  store i32 0, ptr %6, align 4, !tbaa !273
  ret void
}

; Function Attrs: nounwind uwtable
define internal void @mml_clear(ptr noundef %0) #0 {
  %2 = alloca ptr, align 8
  store ptr %0, ptr %2, align 8, !tbaa !15
  %3 = load ptr, ptr %2, align 8, !tbaa !15
  %4 = getelementptr inbounds nuw %struct.MinMaxLen, ptr %3, i32 0, i32 1
  store i32 0, ptr %4, align 4, !tbaa !273
  %5 = load ptr, ptr %2, align 8, !tbaa !15
  %6 = getelementptr inbounds nuw %struct.MinMaxLen, ptr %5, i32 0, i32 0
  store i32 0, ptr %6, align 4, !tbaa !274
  ret void
}

; Function Attrs: nounwind uwtable
define internal void @alt_merge_opt_anc_info(ptr noundef %0, ptr noundef %1) #0 {
  %3 = alloca ptr, align 8
  %4 = alloca ptr, align 8
  store ptr %0, ptr %3, align 8, !tbaa !15
  store ptr %1, ptr %4, align 8, !tbaa !15
  %5 = load ptr, ptr %4, align 8, !tbaa !15
  %6 = getelementptr inbounds nuw %struct.OptAnc, ptr %5, i32 0, i32 0
  %7 = load i32, ptr %6, align 4, !tbaa !274
  %8 = load ptr, ptr %3, align 8, !tbaa !15
  %9 = getelementptr inbounds nuw %struct.OptAnc, ptr %8, i32 0, i32 0
  %10 = load i32, ptr %9, align 4, !tbaa !274
  %11 = and i32 %10, %7
  store i32 %11, ptr %9, align 4, !tbaa !274
  %12 = load ptr, ptr %4, align 8, !tbaa !15
  %13 = getelementptr inbounds nuw %struct.OptAnc, ptr %12, i32 0, i32 1
  %14 = load i32, ptr %13, align 4, !tbaa !273
  %15 = load ptr, ptr %3, align 8, !tbaa !15
  %16 = getelementptr inbounds nuw %struct.OptAnc, ptr %15, i32 0, i32 1
  %17 = load i32, ptr %16, align 4, !tbaa !273
  %18 = and i32 %17, %14
  store i32 %18, ptr %16, align 4, !tbaa !273
  ret void
}

; Function Attrs: nounwind uwtable
define internal i32 @mml_is_equal(ptr noundef %0, ptr noundef %1) #0 {
  %3 = alloca ptr, align 8
  %4 = alloca ptr, align 8
  store ptr %0, ptr %3, align 8, !tbaa !15
  store ptr %1, ptr %4, align 8, !tbaa !15
  %5 = load ptr, ptr %3, align 8, !tbaa !15
  %6 = getelementptr inbounds nuw %struct.MinMaxLen, ptr %5, i32 0, i32 0
  %7 = load i32, ptr %6, align 4, !tbaa !274
  %8 = load ptr, ptr %4, align 8, !tbaa !15
  %9 = getelementptr inbounds nuw %struct.MinMaxLen, ptr %8, i32 0, i32 0
  %10 = load i32, ptr %9, align 4, !tbaa !274
  %11 = icmp eq i32 %7, %10
  br i1 %11, label %12, label %20

12:                                               ; preds = %2
  %13 = load ptr, ptr %3, align 8, !tbaa !15
  %14 = getelementptr inbounds nuw %struct.MinMaxLen, ptr %13, i32 0, i32 1
  %15 = load i32, ptr %14, align 4, !tbaa !273
  %16 = load ptr, ptr %4, align 8, !tbaa !15
  %17 = getelementptr inbounds nuw %struct.MinMaxLen, ptr %16, i32 0, i32 1
  %18 = load i32, ptr %17, align 4, !tbaa !273
  %19 = icmp eq i32 %15, %18
  br label %20

20:                                               ; preds = %12, %2
  %21 = phi i1 [ false, %2 ], [ %19, %12 ]
  %22 = zext i1 %21 to i32
  ret i32 %22
}

; Function Attrs: nounwind uwtable
define internal void @clear_opt_exact(ptr noundef %0) #0 {
  %2 = alloca ptr, align 8
  store ptr %0, ptr %2, align 8, !tbaa !15
  %3 = load ptr, ptr %2, align 8, !tbaa !15
  %4 = getelementptr inbounds nuw %struct.OptStr, ptr %3, i32 0, i32 0
  call void @mml_clear(ptr noundef %4)
  %5 = load ptr, ptr %2, align 8, !tbaa !15
  %6 = getelementptr inbounds nuw %struct.OptStr, ptr %5, i32 0, i32 1
  call void @clear_opt_anc_info(ptr noundef %6)
  %7 = load ptr, ptr %2, align 8, !tbaa !15
  %8 = getelementptr inbounds nuw %struct.OptStr, ptr %7, i32 0, i32 2
  store i32 0, ptr %8, align 4, !tbaa !307
  %9 = load ptr, ptr %2, align 8, !tbaa !15
  %10 = getelementptr inbounds nuw %struct.OptStr, ptr %9, i32 0, i32 3
  store i32 0, ptr %10, align 4, !tbaa !289
  %11 = load ptr, ptr %2, align 8, !tbaa !15
  %12 = getelementptr inbounds nuw %struct.OptStr, ptr %11, i32 0, i32 4
  %13 = getelementptr inbounds [24 x i8], ptr %12, i64 0, i64 0
  store i8 0, ptr %13, align 4, !tbaa !32
  ret void
}

; Function Attrs: nounwind uwtable
define internal void @alt_merge_opt_exact(ptr noundef %0, ptr noundef %1, ptr noundef %2) #0 {
  %4 = alloca ptr, align 8
  %5 = alloca ptr, align 8
  %6 = alloca ptr, align 8
  %7 = alloca i32, align 4
  %8 = alloca i32, align 4
  %9 = alloca i32, align 4
  %10 = alloca i32, align 4
  store ptr %0, ptr %4, align 8, !tbaa !15
  store ptr %1, ptr %5, align 8, !tbaa !15
  store ptr %2, ptr %6, align 8, !tbaa !15
  call void @llvm.lifetime.start.p0(i64 4, ptr %7) #9
  call void @llvm.lifetime.start.p0(i64 4, ptr %8) #9
  call void @llvm.lifetime.start.p0(i64 4, ptr %9) #9
  %11 = load ptr, ptr %5, align 8, !tbaa !15
  %12 = getelementptr inbounds nuw %struct.OptStr, ptr %11, i32 0, i32 3
  %13 = load i32, ptr %12, align 4, !tbaa !289
  %14 = icmp eq i32 %13, 0
  br i1 %14, label %20, label %15

15:                                               ; preds = %3
  %16 = load ptr, ptr %4, align 8, !tbaa !15
  %17 = getelementptr inbounds nuw %struct.OptStr, ptr %16, i32 0, i32 3
  %18 = load i32, ptr %17, align 4, !tbaa !289
  %19 = icmp eq i32 %18, 0
  br i1 %19, label %20, label %22

20:                                               ; preds = %15, %3
  %21 = load ptr, ptr %4, align 8, !tbaa !15
  call void @clear_opt_exact(ptr noundef %21)
  store i32 1, ptr %10, align 4
  br label %151

22:                                               ; preds = %15
  %23 = load ptr, ptr %4, align 8, !tbaa !15
  %24 = getelementptr inbounds nuw %struct.OptStr, ptr %23, i32 0, i32 0
  %25 = load ptr, ptr %5, align 8, !tbaa !15
  %26 = getelementptr inbounds nuw %struct.OptStr, ptr %25, i32 0, i32 0
  %27 = call i32 @mml_is_equal(ptr noundef %24, ptr noundef %26)
  %28 = icmp ne i32 %27, 0
  br i1 %28, label %31, label %29

29:                                               ; preds = %22
  %30 = load ptr, ptr %4, align 8, !tbaa !15
  call void @clear_opt_exact(ptr noundef %30)
  store i32 1, ptr %10, align 4
  br label %151

31:                                               ; preds = %22
  store i32 0, ptr %7, align 4, !tbaa !4
  br label %32

32:                                               ; preds = %110, %31
  %33 = load i32, ptr %7, align 4, !tbaa !4
  %34 = load ptr, ptr %4, align 8, !tbaa !15
  %35 = getelementptr inbounds nuw %struct.OptStr, ptr %34, i32 0, i32 3
  %36 = load i32, ptr %35, align 4, !tbaa !289
  %37 = icmp slt i32 %33, %36
  br i1 %37, label %38, label %44

38:                                               ; preds = %32
  %39 = load i32, ptr %7, align 4, !tbaa !4
  %40 = load ptr, ptr %5, align 8, !tbaa !15
  %41 = getelementptr inbounds nuw %struct.OptStr, ptr %40, i32 0, i32 3
  %42 = load i32, ptr %41, align 4, !tbaa !289
  %43 = icmp slt i32 %39, %42
  br label %44

44:                                               ; preds = %38, %32
  %45 = phi i1 [ false, %32 ], [ %43, %38 ]
  br i1 %45, label %46, label %114

46:                                               ; preds = %44
  %47 = load ptr, ptr %4, align 8, !tbaa !15
  %48 = getelementptr inbounds nuw %struct.OptStr, ptr %47, i32 0, i32 4
  %49 = load i32, ptr %7, align 4, !tbaa !4
  %50 = sext i32 %49 to i64
  %51 = getelementptr inbounds [24 x i8], ptr %48, i64 0, i64 %50
  %52 = load i8, ptr %51, align 1, !tbaa !32
  %53 = zext i8 %52 to i32
  %54 = load ptr, ptr %5, align 8, !tbaa !15
  %55 = getelementptr inbounds nuw %struct.OptStr, ptr %54, i32 0, i32 4
  %56 = load i32, ptr %7, align 4, !tbaa !4
  %57 = sext i32 %56 to i64
  %58 = getelementptr inbounds [24 x i8], ptr %55, i64 0, i64 %57
  %59 = load i8, ptr %58, align 1, !tbaa !32
  %60 = zext i8 %59 to i32
  %61 = icmp ne i32 %53, %60
  br i1 %61, label %62, label %63

62:                                               ; preds = %46
  br label %114

63:                                               ; preds = %46
  %64 = load ptr, ptr %6, align 8, !tbaa !15
  %65 = getelementptr inbounds nuw %struct.OptEnv, ptr %64, i32 0, i32 1
  %66 = load ptr, ptr %65, align 8, !tbaa !79
  %67 = getelementptr inbounds nuw %struct.OnigEncodingTypeST, ptr %66, i32 0, i32 0
  %68 = load ptr, ptr %67, align 8, !tbaa !223
  %69 = load ptr, ptr %4, align 8, !tbaa !15
  %70 = getelementptr inbounds nuw %struct.OptStr, ptr %69, i32 0, i32 4
  %71 = getelementptr inbounds [24 x i8], ptr %70, i64 0, i64 0
  %72 = load i32, ptr %7, align 4, !tbaa !4
  %73 = sext i32 %72 to i64
  %74 = getelementptr inbounds i8, ptr %71, i64 %73
  %75 = call i32 %68(ptr noundef %74)
  store i32 %75, ptr %9, align 4, !tbaa !4
  store i32 1, ptr %8, align 4, !tbaa !4
  br label %76

76:                                               ; preds = %102, %63
  %77 = load i32, ptr %8, align 4, !tbaa !4
  %78 = load i32, ptr %9, align 4, !tbaa !4
  %79 = icmp slt i32 %77, %78
  br i1 %79, label %80, label %105

80:                                               ; preds = %76
  %81 = load ptr, ptr %4, align 8, !tbaa !15
  %82 = getelementptr inbounds nuw %struct.OptStr, ptr %81, i32 0, i32 4
  %83 = load i32, ptr %7, align 4, !tbaa !4
  %84 = load i32, ptr %8, align 4, !tbaa !4
  %85 = add nsw i32 %83, %84
  %86 = sext i32 %85 to i64
  %87 = getelementptr inbounds [24 x i8], ptr %82, i64 0, i64 %86
  %88 = load i8, ptr %87, align 1, !tbaa !32
  %89 = zext i8 %88 to i32
  %90 = load ptr, ptr %5, align 8, !tbaa !15
  %91 = getelementptr inbounds nuw %struct.OptStr, ptr %90, i32 0, i32 4
  %92 = load i32, ptr %7, align 4, !tbaa !4
  %93 = load i32, ptr %8, align 4, !tbaa !4
  %94 = add nsw i32 %92, %93
  %95 = sext i32 %94 to i64
  %96 = getelementptr inbounds [24 x i8], ptr %91, i64 0, i64 %95
  %97 = load i8, ptr %96, align 1, !tbaa !32
  %98 = zext i8 %97 to i32
  %99 = icmp ne i32 %89, %98
  br i1 %99, label %100, label %101

100:                                              ; preds = %80
  br label %105

101:                                              ; preds = %80
  br label %102

102:                                              ; preds = %101
  %103 = load i32, ptr %8, align 4, !tbaa !4
  %104 = add nsw i32 %103, 1
  store i32 %104, ptr %8, align 4, !tbaa !4
  br label %76, !llvm.loop !318

105:                                              ; preds = %100, %76
  %106 = load i32, ptr %8, align 4, !tbaa !4
  %107 = load i32, ptr %9, align 4, !tbaa !4
  %108 = icmp slt i32 %106, %107
  br i1 %108, label %109, label %110

109:                                              ; preds = %105
  br label %114

110:                                              ; preds = %105
  %111 = load i32, ptr %9, align 4, !tbaa !4
  %112 = load i32, ptr %7, align 4, !tbaa !4
  %113 = add nsw i32 %112, %111
  store i32 %113, ptr %7, align 4, !tbaa !4
  br label %32, !llvm.loop !319

114:                                              ; preds = %109, %62, %44
  %115 = load ptr, ptr %5, align 8, !tbaa !15
  %116 = getelementptr inbounds nuw %struct.OptStr, ptr %115, i32 0, i32 2
  %117 = load i32, ptr %116, align 4, !tbaa !307
  %118 = icmp ne i32 %117, 0
  br i1 %118, label %119, label %131

119:                                              ; preds = %114
  %120 = load i32, ptr %7, align 4, !tbaa !4
  %121 = load ptr, ptr %5, align 8, !tbaa !15
  %122 = getelementptr inbounds nuw %struct.OptStr, ptr %121, i32 0, i32 3
  %123 = load i32, ptr %122, align 4, !tbaa !289
  %124 = icmp slt i32 %120, %123
  br i1 %124, label %131, label %125

125:                                              ; preds = %119
  %126 = load i32, ptr %7, align 4, !tbaa !4
  %127 = load ptr, ptr %4, align 8, !tbaa !15
  %128 = getelementptr inbounds nuw %struct.OptStr, ptr %127, i32 0, i32 3
  %129 = load i32, ptr %128, align 4, !tbaa !289
  %130 = icmp slt i32 %126, %129
  br i1 %130, label %131, label %134

131:                                              ; preds = %125, %119, %114
  %132 = load ptr, ptr %4, align 8, !tbaa !15
  %133 = getelementptr inbounds nuw %struct.OptStr, ptr %132, i32 0, i32 2
  store i32 0, ptr %133, align 4, !tbaa !307
  br label %134

134:                                              ; preds = %131, %125
  %135 = load i32, ptr %7, align 4, !tbaa !4
  %136 = load ptr, ptr %4, align 8, !tbaa !15
  %137 = getelementptr inbounds nuw %struct.OptStr, ptr %136, i32 0, i32 3
  store i32 %135, ptr %137, align 4, !tbaa !289
  %138 = load ptr, ptr %4, align 8, !tbaa !15
  %139 = getelementptr inbounds nuw %struct.OptStr, ptr %138, i32 0, i32 1
  %140 = load ptr, ptr %5, align 8, !tbaa !15
  %141 = getelementptr inbounds nuw %struct.OptStr, ptr %140, i32 0, i32 1
  call void @alt_merge_opt_anc_info(ptr noundef %139, ptr noundef %141)
  %142 = load ptr, ptr %4, align 8, !tbaa !15
  %143 = getelementptr inbounds nuw %struct.OptStr, ptr %142, i32 0, i32 2
  %144 = load i32, ptr %143, align 4, !tbaa !307
  %145 = icmp ne i32 %144, 0
  br i1 %145, label %150, label %146

146:                                              ; preds = %134
  %147 = load ptr, ptr %4, align 8, !tbaa !15
  %148 = getelementptr inbounds nuw %struct.OptStr, ptr %147, i32 0, i32 1
  %149 = getelementptr inbounds nuw %struct.OptAnc, ptr %148, i32 0, i32 1
  store i32 0, ptr %149, align 4, !tbaa !320
  br label %150

150:                                              ; preds = %146, %134
  store i32 0, ptr %10, align 4
  br label %151

151:                                              ; preds = %150, %29, %20
  call void @llvm.lifetime.end.p0(i64 4, ptr %9) #9
  call void @llvm.lifetime.end.p0(i64 4, ptr %8) #9
  call void @llvm.lifetime.end.p0(i64 4, ptr %7) #9
  %152 = load i32, ptr %10, align 4
  switch i32 %152, label %154 [
    i32 0, label %153
    i32 1, label %153
  ]

153:                                              ; preds = %151, %151
  ret void

154:                                              ; preds = %151
  unreachable
}