; Function Attrs: nounwind uwtable
define internal fastcc void @alt_merge_opt_exact(ptr noundef nonnull %0, ptr noundef nonnull readonly captures(none) %1, ptr noundef nonnull readonly captures(none) %2) unnamed_addr #6 {
  %4 = getelementptr inbounds nuw i8, ptr %1, i64 20
  %5 = load i32, ptr %4, align 4, !tbaa !70
  %6 = icmp eq i32 %5, 0
  br i1 %6, label %.sink.split, label %7

7:                                                ; preds = %3
  %8 = getelementptr inbounds nuw i8, ptr %0, i64 20
  %9 = load i32, ptr %8, align 4, !tbaa !70
  %10 = icmp eq i32 %9, 0
  br i1 %10, label %.sink.split, label %11

11:                                               ; preds = %7
  %12 = load i32, ptr %0, align 4, !tbaa !54
  %13 = load i32, ptr %1, align 4, !tbaa !54
  %14 = icmp eq i32 %12, %13
  br i1 %14, label %mml_is_equal.exit, label %.sink.split

mml_is_equal.exit:                                ; preds = %11
  %15 = getelementptr inbounds nuw i8, ptr %0, i64 4
  %16 = load i32, ptr %15, align 4, !tbaa !53
  %17 = getelementptr inbounds nuw i8, ptr %1, i64 4
  %18 = load i32, ptr %17, align 4, !tbaa !53
  %.not = icmp eq i32 %16, %18
  br i1 %.not, label %.preheader, label %.sink.split

.preheader:                                       ; preds = %mml_is_equal.exit
  %19 = icmp sgt i32 %9, 0
  br i1 %19, label %.lr.ph57, label %.critedge

.lr.ph57:                                         ; preds = %.preheader
  %20 = getelementptr inbounds nuw i8, ptr %0, i64 24
  %21 = getelementptr inbounds nuw i8, ptr %1, i64 24
  %22 = getelementptr inbounds nuw i8, ptr %2, i64 8
  br label %23

23:                                               ; preds = %.lr.ph57, %.critedge48
  %.056 = phi i32 [ 0, %.lr.ph57 ], [ %43, %.critedge48 ]
  %24 = load i32, ptr %4, align 4, !tbaa !70
  %25 = icmp slt i32 %.056, %24
  br i1 %25, label %26, label %.critedge

26:                                               ; preds = %23
  %27 = sext i32 %.056 to i64
  %28 = getelementptr inbounds [24 x i8], ptr %20, i64 0, i64 %27
  %29 = load i8, ptr %28, align 1, !tbaa !20
  %30 = getelementptr inbounds [24 x i8], ptr %21, i64 0, i64 %27
  %31 = load i8, ptr %30, align 1, !tbaa !20
  %.not43 = icmp eq i8 %29, %31
  br i1 %.not43, label %32, label %.critedge

32:                                               ; preds = %26
  %33 = load ptr, ptr %22, align 8, !tbaa !47
  %34 = load ptr, ptr %33, align 8, !tbaa !74
  %35 = tail call i32 %34(ptr noundef nonnull %28) #22
  %36 = icmp sgt i32 %35, 1
  br i1 %36, label %.lr.ph.preheader, label %.critedge48

.lr.ph.preheader:                                 ; preds = %32
  %wide.trip.count = zext nneg i32 %35 to i64
  br label %.lr.ph

37:                                               ; preds = %.lr.ph
  %indvars.iv.next = add nuw nsw i64 %indvars.iv, 1
  %exitcond.not = icmp eq i64 %indvars.iv.next, %wide.trip.count
  br i1 %exitcond.not, label %.critedge48, label %.lr.ph, !llvm.loop !321

.lr.ph:                                           ; preds = %.lr.ph.preheader, %37
  %indvars.iv = phi i64 [ 1, %.lr.ph.preheader ], [ %indvars.iv.next, %37 ]
  %38 = add nsw i64 %indvars.iv, %27
  %39 = getelementptr inbounds [24 x i8], ptr %20, i64 0, i64 %38
  %40 = load i8, ptr %39, align 1, !tbaa !20
  %41 = getelementptr inbounds [24 x i8], ptr %21, i64 0, i64 %38
  %42 = load i8, ptr %41, align 1, !tbaa !20
  %.not44 = icmp eq i8 %40, %42
  br i1 %.not44, label %37, label %.critedge

.critedge48:                                      ; preds = %37, %32
  %43 = add nsw i32 %35, %.056
  %44 = load i32, ptr %8, align 4, !tbaa !70
  %45 = icmp slt i32 %43, %44
  br i1 %45, label %23, label %.critedge, !llvm.loop !322

.critedge:                                        ; preds = %23, %26, %.critedge48, %.lr.ph, %.preheader
  %.053 = phi i32 [ 0, %.preheader ], [ %.056, %.lr.ph ], [ %.056, %23 ], [ %.056, %26 ], [ %43, %.critedge48 ]
  %46 = getelementptr inbounds nuw i8, ptr %1, i64 16
  %47 = load i32, ptr %46, align 4, !tbaa !295
  %.not45 = icmp eq i32 %47, 0
  br i1 %.not45, label %55, label %48

48:                                               ; preds = %.critedge
  %49 = load i32, ptr %4, align 4, !tbaa !70
  %50 = icmp slt i32 %.053, %49
  br i1 %50, label %55, label %51

51:                                               ; preds = %48
  %52 = load i32, ptr %8, align 4, !tbaa !70
  %53 = icmp slt i32 %.053, %52
  br i1 %53, label %55, label %._crit_edge

._crit_edge:                                      ; preds = %51
  %.phi.trans.insert = getelementptr inbounds nuw i8, ptr %0, i64 16
  %.pre = load i32, ptr %.phi.trans.insert, align 4, !tbaa !295
  %54 = icmp eq i32 %.pre, 0
  br label %57

55:                                               ; preds = %51, %48, %.critedge
  %56 = getelementptr inbounds nuw i8, ptr %0, i64 16
  store i32 0, ptr %56, align 4, !tbaa !295
  br label %57

57:                                               ; preds = %._crit_edge, %55
  %.not46 = phi i1 [ %54, %._crit_edge ], [ true, %55 ]
  store i32 %.053, ptr %8, align 4, !tbaa !70
  %58 = getelementptr inbounds nuw i8, ptr %0, i64 8
  %59 = getelementptr inbounds nuw i8, ptr %1, i64 8
  %.val = load i32, ptr %59, align 4, !tbaa !54
  %60 = getelementptr i8, ptr %1, i64 12
  %.val49 = load i32, ptr %60, align 4, !tbaa !53
  %61 = load i32, ptr %58, align 4, !tbaa !54
  %62 = and i32 %61, %.val
  store i32 %62, ptr %58, align 4, !tbaa !54
  %63 = getelementptr inbounds nuw i8, ptr %0, i64 12
  %64 = load i32, ptr %63, align 4, !tbaa !53
  %65 = and i32 %64, %.val49
  %spec.store.select = select i1 %.not46, i32 0, i32 %65
  store i32 %spec.store.select, ptr %63, align 4
  br label %66

.sink.split:                                      ; preds = %mml_is_equal.exit, %11, %3, %7
  tail call void @llvm.memset.p0.i64(ptr noundef nonnull align 4 dereferenceable(25) %0, i8 0, i64 25, i1 false)
  br label %66

66:                                               ; preds = %57, %.sink.split
  ret void
}